target datalayout = "e-m:e-p270:32:32-p271:32:32-p272:64:64-i64:64-i128:128-f80:128-n8:16:32:64-S128"
target triple = "x86_64-pc-linux-gnu"

%struct._zend_executor_globals = type { %struct._zval_struct, %struct._zval_struct, [32 x ptr], ptr, ptr, %struct._zend_array, %struct._zend_array, ptr, i32, i32, ptr, ptr, ptr, ptr, ptr, ptr, i64, ptr, ptr, i32, i32, i64, i32, i32, i32, i8, i8, %struct.zend_atomic_bool_s, %struct.zend_atomic_bool_s, ptr, i64, ptr, ptr, %struct._zend_array, %struct._zend_array, i32, i8, %struct._zval_struct, %struct._zval_struct, %struct._zend_stack, %struct._zend_stack, %struct._zend_stack, ptr, i32, i32, i64, ptr, ptr, ptr, %struct._zend_objects_store, ptr, ptr, ptr, [3 x %struct._zend_op], ptr, i8, i8, i64, i32, i32, ptr, [16 x %struct._HashTableIterator], ptr, %union._zend_function, %struct._zend_op, %struct._zend_array, i64, %struct.zend_get_gc_buffer, ptr, ptr, ptr, i64, i8, i32, ptr, ptr, i64, %struct._zend_call_stack, i64, i64, [6 x ptr] }
%struct.zend_atomic_bool_s = type { i8 }
%struct._zval_struct = type { %union._zend_value, %union.anon.9, %union.anon.12 }
%union._zend_value = type { i64 }
%union.anon.9 = type { i32 }
%union.anon.12 = type { i32 }
%struct._zend_stack = type { i32, i32, i32, ptr }
%struct._zend_objects_store = type { ptr, i32, i32, i32 }
%struct._HashTableIterator = type { ptr, i32, i32 }
%union._zend_function = type { %struct._zend_op_array }
%struct._zend_op_array = type { i8, [3 x i8], i32, ptr, ptr, ptr, i32, i32, ptr, ptr, ptr, ptr, i32, i32, i32, i32, ptr, ptr, ptr, ptr, ptr, i32, i32, ptr, ptr, ptr, i32, i32, i32, i32, ptr, ptr, [6 x ptr] }
%struct._zend_op = type { ptr, %union._znode_op, %union._znode_op, %union._znode_op, i32, i32, i8, i8, i8, i8 }
%union._znode_op = type { i32 }
%struct._zend_array = type { %struct._zend_refcounted_h, %union.anon.1, i32, %union.anon.2, i32, i32, i32, i32, i64, ptr }
%struct._zend_refcounted_h = type { i32, %union.anon.0 }
%union.anon.0 = type { i32 }
%union.anon.1 = type { i32 }
%union.anon.2 = type { ptr }
%struct.zend_get_gc_buffer = type { ptr, ptr, ptr }
%struct._zend_call_stack = type { ptr, i64 }
%struct._zend_fcall_info_cache = type { ptr, ptr, ptr, ptr, ptr }
%struct.xml_parser = type { ptr, ptr, %struct._zval_struct, ptr, %struct._zend_fcall_info_cache, %struct._zend_fcall_info_cache, %struct._zend_fcall_info_cache, %struct._zend_fcall_info_cache, %struct._zend_fcall_info_cache, %struct._zend_fcall_info_cache, %struct._zend_fcall_info_cache, %struct._zend_fcall_info_cache, %struct._zend_fcall_info_cache, %struct._zend_fcall_info_cache, %struct._zval_struct, %struct._zval_struct, i32, i32, i32, ptr, ptr, i8, i8, i8, i8, i8, ptr, %struct._zend_object }
%struct._zend_object = type { %struct._zend_refcounted_h, i32, ptr, ptr, ptr, [1 x %struct._zval_struct] }
%struct._zend_execute_data = type { ptr, ptr, ptr, ptr, %struct._zval_struct, ptr, ptr, ptr, ptr }
%struct._zend_fcall_info = type { i64, %struct._zval_struct, ptr, ptr, ptr, i32, ptr }

@xml_parser_ce = internal global ptr null, align 8
@executor_globals = external global %struct._zend_executor_globals, align 8
@.str.36 = private unnamed_addr constant [37 x i8] c"must be of type callable|string|null\00", align 1
@.str.126 = private unnamed_addr constant [4 x i8] c"OF!\00", align 1
@.str.127 = private unnamed_addr constant [3 x i8] c"OS\00", align 1
@.str.128 = private unnamed_addr constant [3 x i8] c"Oz\00", align 1

; Function Attrs: nounwind uwtable
define internal ptr @xml_parser_from_obj(ptr noundef %0) #0 {
  %2 = alloca ptr, align 8
  store ptr %0, ptr %2, align 8
  %3 = load ptr, ptr %2, align 8
  %4 = getelementptr inbounds i8, ptr %3, i64 -520
  ret ptr %4
}

; Function Attrs: nounwind uwtable
define internal void @php_xml_set_handler_parse_callable(ptr noundef %0, ptr noundef %1, ptr noundef %2, ptr noundef %3) #0 {
  %5 = alloca ptr, align 8
  %6 = alloca ptr, align 8
  %7 = alloca ptr, align 8
  %8 = alloca ptr, align 8
  %9 = alloca ptr, align 8
  %10 = alloca %struct._zend_fcall_info, align 8
  %11 = alloca %struct._zend_fcall_info_cache, align 8
  %12 = alloca ptr, align 8
  %13 = alloca i8, align 1
  %14 = alloca ptr, align 8
  store ptr %0, ptr %5, align 8
  store ptr %1, ptr %6, align 8
  store ptr %2, ptr %7, align 8
  store ptr %3, ptr %8, align 8
  call void @llvm.memset.p0.i64(ptr align 8 %10, i8 0, i64 64, i1 false)
  call void @llvm.memset.p0.i64(ptr align 8 %11, i8 0, i64 40, i1 false)
  store ptr null, ptr %12, align 8
  %15 = load ptr, ptr %5, align 8
  %16 = getelementptr inbounds %struct._zend_execute_data, ptr %15, i32 0, i32 4
  %17 = getelementptr inbounds %struct._zval_struct, ptr %16, i32 0, i32 2
  %18 = load i32, ptr %17, align 4
  %19 = load ptr, ptr @xml_parser_ce, align 8
  %20 = call i32 (i32, i32, ptr, ...) @zend_parse_parameters_ex(i32 noundef 2, i32 noundef %18, ptr noundef @.str.126, ptr noundef %9, ptr noundef %19, ptr noundef %10, ptr noundef %11)
  %21 = icmp eq i32 %20, 0
  br i1 %21, label %22, label %34

22:                                               ; preds = %4
  %23 = load ptr, ptr %9, align 8
  %24 = getelementptr inbounds %struct._zval_struct, ptr %23, i32 0, i32 0
  %25 = load ptr, ptr %24, align 8
  %26 = call ptr @xml_parser_from_obj(ptr noundef %25)
  %27 = load ptr, ptr %7, align 8
  store ptr %26, ptr %27, align 8
  %28 = getelementptr inbounds %struct._zend_fcall_info, ptr %10, i32 0, i32 0
  %29 = load i64, ptr %28, align 8
  %30 = icmp ne i64 %29, 0
  br i1 %30, label %32, label %31

31:                                               ; preds = %22
  br label %85

32:                                               ; preds = %22
  %33 = load ptr, ptr %8, align 8
  call void @llvm.memcpy.p0.p0.i64(ptr align 8 %33, ptr align 8 %11, i64 40, i1 false)
  br label %85

34:                                               ; preds = %4
  %35 = load ptr, ptr %5, align 8
  %36 = getelementptr inbounds %struct._zend_execute_data, ptr %35, i32 0, i32 4
  %37 = getelementptr inbounds %struct._zval_struct, ptr %36, i32 0, i32 2
  %38 = load i32, ptr %37, align 4
  %39 = load ptr, ptr @xml_parser_ce, align 8
  %40 = call i32 (i32, i32, ptr, ...) @zend_parse_parameters_ex(i32 noundef 2, i32 noundef %38, ptr noundef @.str.127, ptr noundef %9, ptr noundef %39, ptr noundef %12)
  %41 = icmp eq i32 %40, 0
  br i1 %41, label %42, label %66

42:                                               ; preds = %34
  %43 = load ptr, ptr %9, align 8
  %44 = getelementptr inbounds %struct._zval_struct, ptr %43, i32 0, i32 0
  %45 = load ptr, ptr %44, align 8
  %46 = call ptr @xml_parser_from_obj(ptr noundef %45)
  %47 = load ptr, ptr %7, align 8
  store ptr %46, ptr %47, align 8
  %48 = load ptr, ptr %7, align 8
  %49 = load ptr, ptr %48, align 8
  %50 = getelementptr inbounds %struct.xml_parser, ptr %49, i32 0, i32 3
  %51 = load ptr, ptr %50, align 8
  %52 = load ptr, ptr %12, align 8
  %53 = load ptr, ptr %8, align 8
  %54 = call zeroext i1 @php_xml_check_string_method_arg(i32 noundef 2, ptr noundef %51, ptr noundef %52, ptr noundef %53)
  %55 = zext i1 %54 to i8
  store i8 %55, ptr %13, align 1
  %56 = load i8, ptr %13, align 1
  %57 = trunc i8 %56 to i1
  %58 = zext i1 %57 to i32
  %59 = icmp eq i32 %58, 0
  br i1 %59, label %60, label %65

60:                                               ; preds = %42
  br label %61

61:                                               ; preds = %60
  %62 = load ptr, ptr getelementptr inbounds (%struct._zend_executor_globals, ptr @executor_globals, i32 0, i32 50), align 8
  %63 = icmp ne ptr %62, null
  call void @llvm.assume(i1 %63)
  br label %85

64:                                               ; No predecessors!
  br label %65

65:                                               ; preds = %64, %42
  br label %84

66:                                               ; preds = %34
  %67 = load ptr, ptr %5, align 8
  %68 = getelementptr inbounds %struct._zend_execute_data, ptr %67, i32 0, i32 4
  %69 = getelementptr inbounds %struct._zval_struct, ptr %68, i32 0, i32 2
  %70 = load i32, ptr %69, align 4
  %71 = load ptr, ptr @xml_parser_ce, align 8
  %72 = call i32 (i32, ptr, ...) @zend_parse_parameters(i32 noundef %70, ptr noundef @.str.128, ptr noundef %9, ptr noundef %71, ptr noundef %14)
  %73 = icmp eq i32 %72, -1
  br i1 %73, label %74, label %79

74:                                               ; preds = %66
  br label %75

75:                                               ; preds = %74
  %76 = load ptr, ptr getelementptr inbounds (%struct._zend_executor_globals, ptr @executor_globals, i32 0, i32 50), align 8
  %77 = icmp ne ptr %76, null
  call void @llvm.assume(i1 %77)
  br label %85

78:                                               ; No predecessors!
  br label %79

79:                                               ; preds = %78, %66
  call void (i32, ptr, ...) @zend_argument_type_error(i32 noundef 2, ptr noundef @.str.36)
  br label %80

80:                                               ; preds = %79
  %81 = load ptr, ptr getelementptr inbounds (%struct._zend_executor_globals, ptr @executor_globals, i32 0, i32 50), align 8
  %82 = icmp ne ptr %81, null
  call void @llvm.assume(i1 %82)
  br label %85

83:                                               ; No predecessors!
  br label %84

84:                                               ; preds = %83, %65
  br label %85

85:                                               ; preds = %84, %80, %75, %61, %32, %31
  ret void
}