; Function Attrs: nounwind uwtable
define internal fastcc void @php_xml_set_handler_parse_callable(ptr nocapture noundef readonly %0, ptr nocapture noundef writeonly %1, ptr nocapture noundef writeonly %2) unnamed_addr #0 {
  %4 = alloca ptr, align 8
  %5 = alloca %struct._zend_fcall_info, align 8
  %6 = alloca %struct._zend_fcall_info_cache, align 8
  %7 = alloca ptr, align 8
  %8 = alloca ptr, align 8
  call void @llvm.memset.p0.i64(ptr noundef nonnull align 8 dereferenceable(64) %5, i8 0, i64 64, i1 false)
  call void @llvm.memset.p0.i64(ptr noundef nonnull align 8 dereferenceable(40) %6, i8 0, i64 40, i1 false)
  store ptr null, ptr %7, align 8
  %9 = getelementptr inbounds i8, ptr %0, i64 44
  %10 = load i32, ptr %9, align 4
  %11 = load ptr, ptr @xml_parser_ce, align 8
  %12 = call i32 (i32, i32, ptr, ...) @zend_parse_parameters_ex(i32 noundef 2, i32 noundef %10, ptr noundef nonnull @.str.126, ptr noundef nonnull %4, ptr noundef %11, ptr noundef nonnull %5, ptr noundef nonnull %6) #16
  %13 = icmp eq i32 %12, 0
  br i1 %13, label %14, label %20

14:                                               ; preds = %3
  %15 = load ptr, ptr %4, align 8
  %16 = load ptr, ptr %15, align 8
  %17 = getelementptr inbounds i8, ptr %16, i64 -520
  store ptr %17, ptr %1, align 8
  %18 = load i64, ptr %5, align 8
  %.not = icmp eq i64 %18, 0
  br i1 %.not, label %47, label %19

19:                                               ; preds = %14
  call void @llvm.memcpy.p0.p0.i64(ptr noundef nonnull align 8 dereferenceable(40) %2, ptr noundef nonnull align 8 dereferenceable(40) %6, i64 40, i1 false)
  br label %47

20:                                               ; preds = %3
  %21 = load i32, ptr %9, align 4
  %22 = load ptr, ptr @xml_parser_ce, align 8
  %23 = call i32 (i32, i32, ptr, ...) @zend_parse_parameters_ex(i32 noundef 2, i32 noundef %21, ptr noundef nonnull @.str.127, ptr noundef nonnull %4, ptr noundef %22, ptr noundef nonnull %7) #16
  %24 = icmp eq i32 %23, 0
  br i1 %24, label %25, label %36

25:                                               ; preds = %20
  %26 = load ptr, ptr %4, align 8
  %27 = load ptr, ptr %26, align 8
  %28 = getelementptr inbounds i8, ptr %27, i64 -520
  store ptr %28, ptr %1, align 8
  %29 = getelementptr inbounds i8, ptr %27, i64 -488
  %30 = load ptr, ptr %29, align 8
  %31 = load ptr, ptr %7, align 8
  %32 = call fastcc zeroext i1 @php_xml_check_string_method_arg(i32 noundef 2, ptr noundef %30, ptr noundef %31, ptr noundef %2)
  br i1 %32, label %47, label %33

33:                                               ; preds = %25
  %34 = load ptr, ptr getelementptr inbounds (%struct._zend_executor_globals, ptr @executor_globals, i64 0, i32 50), align 8
  %35 = icmp ne ptr %34, null
  call void @llvm.assume(i1 %35)
  br label %47

36:                                               ; preds = %20
  %37 = load i32, ptr %9, align 4
  %38 = load ptr, ptr @xml_parser_ce, align 8
  %39 = call i32 (i32, ptr, ...) @zend_parse_parameters(i32 noundef %37, ptr noundef nonnull @.str.128, ptr noundef nonnull %4, ptr noundef %38, ptr noundef nonnull %8) #16
  %40 = icmp eq i32 %39, -1
  br i1 %40, label %41, label %44

41:                                               ; preds = %36
  %42 = load ptr, ptr getelementptr inbounds (%struct._zend_executor_globals, ptr @executor_globals, i64 0, i32 50), align 8
  %43 = icmp ne ptr %42, null
  call void @llvm.assume(i1 %43)
  br label %47

44:                                               ; preds = %36
  call void (i32, ptr, ...) @zend_argument_type_error(i32 noundef 2, ptr noundef nonnull @.str.36) #16
  %45 = load ptr, ptr getelementptr inbounds (%struct._zend_executor_globals, ptr @executor_globals, i64 0, i32 50), align 8
  %46 = icmp ne ptr %45, null
  call void @llvm.assume(i1 %46)
  br label %47

47:                                               ; preds = %25, %14, %44, %41, %33, %19
  ret void
}